target datalayout = "e-m:e-p270:32:32-p271:32:32-p272:64:64-i64:64-i128:128-f80:128-n8:16:32:64-S128"
target triple = "x86_64-pc-linux-gnu"

%"class.xgboost::CatContainer" = type { %"class.std::mutex", %"class.xgboost::HostDeviceVector", i32, %"class.std::unique_ptr", %"class.xgboost::HostDeviceVector" }
%"class.std::mutex" = type { %"class.std::__mutex_base" }
%"class.std::__mutex_base" = type { %union.pthread_mutex_t }
%union.pthread_mutex_t = type { %struct.__pthread_mutex_s }
%struct.__pthread_mutex_s = type { i32, i32, i32, i32, i32, i16, i16, %struct.__pthread_internal_list }
%struct.__pthread_internal_list = type { ptr, ptr }
%"class.std::unique_ptr" = type { %"struct.std::__uniq_ptr_data" }
%"struct.std::__uniq_ptr_data" = type { %"class.std::__uniq_ptr_impl" }
%"class.std::__uniq_ptr_impl" = type { %"class.std::tuple" }
%"class.std::tuple" = type { %"struct.std::_Tuple_impl" }
%"struct.std::_Tuple_impl" = type { %"struct.std::_Head_base.1" }
%"struct.std::_Head_base.1" = type { ptr }
%"class.xgboost::HostDeviceVector" = type { ptr }
%"struct.xgboost::DeviceOrd" = type { i16, i16 }

; Function Attrs: mustprogress uwtable
define linkonce_odr void @_ZN7xgboost12CatContainer10CopyCommonERKS0_(ptr noundef nonnull align 8 dereferenceable(72) %0, ptr noundef nonnull align 8 dereferenceable(72) %1) #4 comdat align 2 {
  %3 = alloca ptr, align 8
  %4 = alloca ptr, align 8
  %5 = alloca %"struct.xgboost::DeviceOrd", align 2
  %6 = alloca %"struct.xgboost::DeviceOrd", align 2
  store ptr %0, ptr %3, align 8, !tbaa !3
  store ptr %1, ptr %4, align 8, !tbaa !3
  %7 = load ptr, ptr %3, align 8
  %8 = getelementptr inbounds nuw %"class.xgboost::CatContainer", ptr %7, i32 0, i32 4
  %9 = load ptr, ptr %4, align 8, !tbaa !3
  %10 = getelementptr inbounds nuw %"class.xgboost::CatContainer", ptr %9, i32 0, i32 4
  %11 = call i32 @_ZNK7xgboost16HostDeviceVectorIiE6DeviceEv(ptr noundef nonnull align 8 dereferenceable(8) %10)
  store i32 %11, ptr %5, align 2
  %12 = load i32, ptr %5, align 2
  call void @_ZNK7xgboost16HostDeviceVectorIiE9SetDeviceENS_9DeviceOrdE(ptr noundef nonnull align 8 dereferenceable(8) %8, i32 %12)
  %13 = getelementptr inbounds nuw %"class.xgboost::CatContainer", ptr %7, i32 0, i32 4
  %14 = load ptr, ptr %4, align 8, !tbaa !3
  %15 = getelementptr inbounds nuw %"class.xgboost::CatContainer", ptr %14, i32 0, i32 4
  %16 = call noundef i64 @_ZNK7xgboost16HostDeviceVectorIiE4SizeEv(ptr noundef nonnull align 8 dereferenceable(8) %15)
  call void @_ZN7xgboost16HostDeviceVectorIiE6ResizeEm(ptr noundef nonnull align 8 dereferenceable(8) %13, i64 noundef %16)
  %17 = getelementptr inbounds nuw %"class.xgboost::CatContainer", ptr %7, i32 0, i32 4
  %18 = load ptr, ptr %4, align 8, !tbaa !3
  %19 = getelementptr inbounds nuw %"class.xgboost::CatContainer", ptr %18, i32 0, i32 4
  call void @_ZN7xgboost16HostDeviceVectorIiE4CopyERKS1_(ptr noundef nonnull align 8 dereferenceable(8) %17, ptr noundef nonnull align 8 dereferenceable(8) %19)
  %20 = getelementptr inbounds nuw %"class.xgboost::CatContainer", ptr %7, i32 0, i32 1
  %21 = load ptr, ptr %4, align 8, !tbaa !3
  %22 = getelementptr inbounds nuw %"class.xgboost::CatContainer", ptr %21, i32 0, i32 1
  %23 = call i32 @_ZNK7xgboost16HostDeviceVectorIiE6DeviceEv(ptr noundef nonnull align 8 dereferenceable(8) %22)
  store i32 %23, ptr %6, align 2
  %24 = load i32, ptr %6, align 2
  call void @_ZNK7xgboost16HostDeviceVectorIiE9SetDeviceENS_9DeviceOrdE(ptr noundef nonnull align 8 dereferenceable(8) %20, i32 %24)
  %25 = getelementptr inbounds nuw %"class.xgboost::CatContainer", ptr %7, i32 0, i32 1
  %26 = load ptr, ptr %4, align 8, !tbaa !3
  %27 = getelementptr inbounds nuw %"class.xgboost::CatContainer", ptr %26, i32 0, i32 1
  %28 = call noundef i64 @_ZNK7xgboost16HostDeviceVectorIiE4SizeEv(ptr noundef nonnull align 8 dereferenceable(8) %27)
  call void @_ZN7xgboost16HostDeviceVectorIiE6ResizeEm(ptr noundef nonnull align 8 dereferenceable(8) %25, i64 noundef %28)
  %29 = getelementptr inbounds nuw %"class.xgboost::CatContainer", ptr %7, i32 0, i32 1
  %30 = load ptr, ptr %4, align 8, !tbaa !3
  %31 = getelementptr inbounds nuw %"class.xgboost::CatContainer", ptr %30, i32 0, i32 1
  call void @_ZN7xgboost16HostDeviceVectorIiE4CopyERKS1_(ptr noundef nonnull align 8 dereferenceable(8) %29, ptr noundef nonnull align 8 dereferenceable(8) %31)
  %32 = load ptr, ptr %4, align 8, !tbaa !3
  %33 = getelementptr inbounds nuw %"class.xgboost::CatContainer", ptr %32, i32 0, i32 2
  %34 = load i32, ptr %33, align 8, !tbaa !18
  %35 = getelementptr inbounds nuw %"class.xgboost::CatContainer", ptr %7, i32 0, i32 2
  store i32 %34, ptr %35, align 8, !tbaa !18
  ret void
}

; Function Attrs: mustprogress uwtable
define void @_ZN7xgboost12CatContainer4CopyEPKNS_7ContextERKS0_(ptr noundef nonnull align 8 dereferenceable(72) %0, ptr noundef %1, ptr noundef nonnull align 8 dereferenceable(72) %2) #4 align 2 {
  %4 = alloca ptr, align 8
  %5 = alloca ptr, align 8
  %6 = alloca ptr, align 8
  store ptr %0, ptr %4, align 8, !tbaa !3
  store ptr %1, ptr %5, align 8, !tbaa !158
  store ptr %2, ptr %6, align 8, !tbaa !3
  %7 = load ptr, ptr %4, align 8
  %8 = load ptr, ptr %6, align 8, !tbaa !3
  call void @_ZN7xgboost12CatContainer10CopyCommonERKS0_(ptr noundef nonnull align 8 dereferenceable(72) %7, ptr noundef nonnull align 8 dereferenceable(72) %8)
  ret void
}