; Function Attrs: mustprogress uwtable
define void @_ZN7xgboost12CatContainer4CopyEPKNS_7ContextERKS0_(ptr noundef nonnull align 8 dereferenceable(72) %0, ptr noundef readnone captures(none) %1, ptr noundef nonnull align 8 dereferenceable(72) %2) local_unnamed_addr #3 align 2 {
  %4 = getelementptr inbounds nuw i8, ptr %0, i64 64
  %5 = getelementptr inbounds nuw i8, ptr %2, i64 64
  %6 = tail call i32 @_ZNK7xgboost16HostDeviceVectorIiE6DeviceEv(ptr noundef nonnull align 8 dereferenceable(8) %5)
  tail call void @_ZNK7xgboost16HostDeviceVectorIiE9SetDeviceENS_9DeviceOrdE(ptr noundef nonnull align 8 dereferenceable(8) %4, i32 %6)
  %7 = tail call noundef i64 @_ZNK7xgboost16HostDeviceVectorIiE4SizeEv(ptr noundef nonnull align 8 dereferenceable(8) %5)
  tail call void @_ZN7xgboost16HostDeviceVectorIiE6ResizeEm(ptr noundef nonnull align 8 dereferenceable(8) %4, i64 noundef %7)
  tail call void @_ZN7xgboost16HostDeviceVectorIiE4CopyERKS1_(ptr noundef nonnull align 8 dereferenceable(8) %4, ptr noundef nonnull align 8 dereferenceable(8) %5)
  %8 = getelementptr inbounds nuw i8, ptr %0, i64 40
  %9 = getelementptr inbounds nuw i8, ptr %2, i64 40
  %10 = tail call i32 @_ZNK7xgboost16HostDeviceVectorIiE6DeviceEv(ptr noundef nonnull align 8 dereferenceable(8) %9)
  tail call void @_ZNK7xgboost16HostDeviceVectorIiE9SetDeviceENS_9DeviceOrdE(ptr noundef nonnull align 8 dereferenceable(8) %8, i32 %10)
  %11 = tail call noundef i64 @_ZNK7xgboost16HostDeviceVectorIiE4SizeEv(ptr noundef nonnull align 8 dereferenceable(8) %9)
  tail call void @_ZN7xgboost16HostDeviceVectorIiE6ResizeEm(ptr noundef nonnull align 8 dereferenceable(8) %8, i64 noundef %11)
  tail call void @_ZN7xgboost16HostDeviceVectorIiE4CopyERKS1_(ptr noundef nonnull align 8 dereferenceable(8) %8, ptr noundef nonnull align 8 dereferenceable(8) %9)
  %12 = getelementptr inbounds nuw i8, ptr %2, i64 48
  %13 = load i32, ptr %12, align 8, !tbaa !3
  %14 = getelementptr inbounds nuw i8, ptr %0, i64 48
  store i32 %13, ptr %14, align 8, !tbaa !3
  ret void
}